target datalayout = "e-m:e-p270:32:32-p271:32:32-p272:64:64-i64:64-i128:128-f80:128-n8:16:32:64-S128"
target triple = "x86_64-pc-linux-gnu"

%struct._object = type { %union.anon, ptr }
%union.anon = type { i64 }
%struct.xmlparseobject = type { %struct._object, ptr, i32, i32, i32, i32, ptr, i32, i32, i8, ptr, ptr }

; Function Attrs: nounwind uwtable
define internal i32 @have_handler(ptr noundef %0, i32 noundef %1) #0 {
  %3 = alloca ptr, align 8
  %4 = alloca i32, align 4
  %5 = alloca ptr, align 8
  store ptr %0, ptr %3, align 8, !tbaa !8
  store i32 %1, ptr %4, align 4, !tbaa !12
  call void @llvm.lifetime.start.p0(i64 8, ptr %5) #7
  %6 = load ptr, ptr %3, align 8, !tbaa !8
  %7 = getelementptr inbounds nuw %struct.xmlparseobject, ptr %6, i32 0, i32 11
  %8 = load ptr, ptr %7, align 8, !tbaa !45
  %9 = load i32, ptr %4, align 4, !tbaa !12
  %10 = sext i32 %9 to i64
  %11 = getelementptr ptr, ptr %8, i64 %10
  %12 = load ptr, ptr %11, align 8, !tbaa !3
  store ptr %12, ptr %5, align 8, !tbaa !3
  %13 = load ptr, ptr %5, align 8, !tbaa !3
  %14 = icmp ne ptr %13, null
  %15 = zext i1 %14 to i32
  call void @llvm.lifetime.end.p0(i64 8, ptr %5) #7
  ret i32 %15
}

; Function Attrs: nounwind uwtable
define internal i32 @flush_character_buffer(ptr noundef %0) #0 {
  %2 = alloca i32, align 4
  %3 = alloca ptr, align 8
  %4 = alloca i32, align 4
  %5 = alloca i32, align 4
  store ptr %0, ptr %3, align 8, !tbaa !8
  call void @llvm.lifetime.start.p0(i64 4, ptr %4) #7
  %6 = load ptr, ptr %3, align 8, !tbaa !8
  %7 = getelementptr inbounds nuw %struct.xmlparseobject, ptr %6, i32 0, i32 6
  %8 = load ptr, ptr %7, align 8, !tbaa !35
  %9 = icmp eq ptr %8, null
  br i1 %9, label %15, label %10

10:                                               ; preds = %1
  %11 = load ptr, ptr %3, align 8, !tbaa !8
  %12 = getelementptr inbounds nuw %struct.xmlparseobject, ptr %11, i32 0, i32 8
  %13 = load i32, ptr %12, align 4, !tbaa !40
  %14 = icmp eq i32 %13, 0
  br i1 %14, label %15, label %16

15:                                               ; preds = %10, %1
  store i32 0, ptr %2, align 4
  store i32 1, ptr %5, align 4
  br label %28

16:                                               ; preds = %10
  %17 = load ptr, ptr %3, align 8, !tbaa !8
  %18 = load ptr, ptr %3, align 8, !tbaa !8
  %19 = getelementptr inbounds nuw %struct.xmlparseobject, ptr %18, i32 0, i32 6
  %20 = load ptr, ptr %19, align 8, !tbaa !35
  %21 = load ptr, ptr %3, align 8, !tbaa !8
  %22 = getelementptr inbounds nuw %struct.xmlparseobject, ptr %21, i32 0, i32 8
  %23 = load i32, ptr %22, align 4, !tbaa !40
  %24 = call i32 @call_character_handler(ptr noundef %17, ptr noundef %20, i32 noundef %23)
  store i32 %24, ptr %4, align 4, !tbaa !12
  %25 = load ptr, ptr %3, align 8, !tbaa !8
  %26 = getelementptr inbounds nuw %struct.xmlparseobject, ptr %25, i32 0, i32 8
  store i32 0, ptr %26, align 4, !tbaa !40
  %27 = load i32, ptr %4, align 4, !tbaa !12
  store i32 %27, ptr %2, align 4
  store i32 1, ptr %5, align 4
  br label %28

28:                                               ; preds = %16, %15
  call void @llvm.lifetime.end.p0(i64 4, ptr %4) #7
  %29 = load i32, ptr %2, align 4
  ret i32 %29
}

; Function Attrs: nounwind uwtable
define internal void @my_CharacterDataHandler(ptr noundef %0, ptr noundef %1, i32 noundef %2) #0 {
  %4 = alloca ptr, align 8
  %5 = alloca ptr, align 8
  %6 = alloca i32, align 4
  %7 = alloca ptr, align 8
  %8 = alloca i32, align 4
  store ptr %0, ptr %4, align 8, !tbaa !8
  store ptr %1, ptr %5, align 8, !tbaa !23
  store i32 %2, ptr %6, align 4, !tbaa !12
  call void @llvm.lifetime.start.p0(i64 8, ptr %7) #7
  %9 = load ptr, ptr %4, align 8, !tbaa !8
  store ptr %9, ptr %7, align 8, !tbaa !8
  %10 = call ptr @PyErr_Occurred()
  %11 = icmp ne ptr %10, null
  br i1 %11, label %12, label %13

12:                                               ; preds = %3
  store i32 1, ptr %8, align 4
  br label %77

13:                                               ; preds = %3
  %14 = load ptr, ptr %7, align 8, !tbaa !8
  %15 = getelementptr inbounds nuw %struct.xmlparseobject, ptr %14, i32 0, i32 6
  %16 = load ptr, ptr %15, align 8, !tbaa !35
  %17 = icmp eq ptr %16, null
  br i1 %17, label %18, label %23

18:                                               ; preds = %13
  %19 = load ptr, ptr %7, align 8, !tbaa !8
  %20 = load ptr, ptr %5, align 8, !tbaa !23
  %21 = load i32, ptr %6, align 4, !tbaa !12
  %22 = call i32 @call_character_handler(ptr noundef %19, ptr noundef %20, i32 noundef %21)
  br label %76

23:                                               ; preds = %13
  %24 = load ptr, ptr %7, align 8, !tbaa !8
  %25 = getelementptr inbounds nuw %struct.xmlparseobject, ptr %24, i32 0, i32 8
  %26 = load i32, ptr %25, align 4, !tbaa !40
  %27 = load i32, ptr %6, align 4, !tbaa !12
  %28 = add i32 %26, %27
  %29 = load ptr, ptr %7, align 8, !tbaa !8
  %30 = getelementptr inbounds nuw %struct.xmlparseobject, ptr %29, i32 0, i32 7
  %31 = load i32, ptr %30, align 8, !tbaa !39
  %32 = icmp sgt i32 %28, %31
  br i1 %32, label %33, label %44

33:                                               ; preds = %23
  %34 = load ptr, ptr %7, align 8, !tbaa !8
  %35 = call i32 @flush_character_buffer(ptr noundef %34)
  %36 = icmp slt i32 %35, 0
  br i1 %36, label %37, label %38

37:                                               ; preds = %33
  store i32 1, ptr %8, align 4
  br label %77

38:                                               ; preds = %33
  %39 = load ptr, ptr %7, align 8, !tbaa !8
  %40 = call i32 @have_handler(ptr noundef %39, i32 noundef 3)
  %41 = icmp ne i32 %40, 0
  br i1 %41, label %43, label %42

42:                                               ; preds = %38
  store i32 1, ptr %8, align 4
  br label %77

43:                                               ; preds = %38
  br label %44

44:                                               ; preds = %43, %23
  %45 = load i32, ptr %6, align 4, !tbaa !12
  %46 = load ptr, ptr %7, align 8, !tbaa !8
  %47 = getelementptr inbounds nuw %struct.xmlparseobject, ptr %46, i32 0, i32 7
  %48 = load i32, ptr %47, align 8, !tbaa !39
  %49 = icmp sgt i32 %45, %48
  br i1 %49, label %50, label %57

50:                                               ; preds = %44
  %51 = load ptr, ptr %7, align 8, !tbaa !8
  %52 = load ptr, ptr %5, align 8, !tbaa !23
  %53 = load i32, ptr %6, align 4, !tbaa !12
  %54 = call i32 @call_character_handler(ptr noundef %51, ptr noundef %52, i32 noundef %53)
  %55 = load ptr, ptr %7, align 8, !tbaa !8
  %56 = getelementptr inbounds nuw %struct.xmlparseobject, ptr %55, i32 0, i32 8
  store i32 0, ptr %56, align 4, !tbaa !40
  br label %75

57:                                               ; preds = %44
  %58 = load ptr, ptr %7, align 8, !tbaa !8
  %59 = getelementptr inbounds nuw %struct.xmlparseobject, ptr %58, i32 0, i32 6
  %60 = load ptr, ptr %59, align 8, !tbaa !35
  %61 = load ptr, ptr %7, align 8, !tbaa !8
  %62 = getelementptr inbounds nuw %struct.xmlparseobject, ptr %61, i32 0, i32 8
  %63 = load i32, ptr %62, align 4, !tbaa !40
  %64 = sext i32 %63 to i64
  %65 = getelementptr i8, ptr %60, i64 %64
  %66 = load ptr, ptr %5, align 8, !tbaa !23
  %67 = load i32, ptr %6, align 4, !tbaa !12
  %68 = sext i32 %67 to i64
  %69 = mul i64 %68, 1
  call void @llvm.memcpy.p0.p0.i64(ptr align 1 %65, ptr align 1 %66, i64 %69, i1 false)
  %70 = load i32, ptr %6, align 4, !tbaa !12
  %71 = load ptr, ptr %7, align 8, !tbaa !8
  %72 = getelementptr inbounds nuw %struct.xmlparseobject, ptr %71, i32 0, i32 8
  %73 = load i32, ptr %72, align 4, !tbaa !40
  %74 = add i32 %73, %70
  store i32 %74, ptr %72, align 4, !tbaa !40
  br label %75

75:                                               ; preds = %57, %50
  br label %76

76:                                               ; preds = %75, %18
  store i32 0, ptr %8, align 4
  br label %77

77:                                               ; preds = %76, %42, %37, %12
  call void @llvm.lifetime.end.p0(i64 8, ptr %7) #7
  %78 = load i32, ptr %8, align 4
  switch i32 %78, label %80 [
    i32 0, label %79
    i32 1, label %79
  ]

79:                                               ; preds = %77, %77
  ret void

80:                                               ; preds = %77
  unreachable
}