; Function Attrs: nounwind uwtable
define internal void @my_CharacterDataHandler(ptr noundef captures(none) %0, ptr noundef %1, i32 noundef %2) #0 {
  %4 = tail call ptr @PyErr_Occurred() #8
  %.not = icmp eq ptr %4, null
  br i1 %.not, label %5, label %38

5:                                                ; preds = %3
  %6 = getelementptr inbounds nuw i8, ptr %0, i64 40
  %7 = load ptr, ptr %6, align 8, !tbaa !29
  %8 = icmp eq ptr %7, null
  br i1 %8, label %9, label %11

9:                                                ; preds = %5
  %10 = tail call fastcc i32 @call_character_handler(ptr noundef nonnull %0, ptr noundef %1, i32 noundef %2)
  br label %38

11:                                               ; preds = %5
  %12 = getelementptr inbounds nuw i8, ptr %0, i64 52
  %13 = load i32, ptr %12, align 4, !tbaa !35
  %14 = add i32 %13, %2
  %15 = getelementptr inbounds nuw i8, ptr %0, i64 48
  %16 = load i32, ptr %15, align 8, !tbaa !34
  %17 = icmp sgt i32 %14, %16
  br i1 %17, label %18, label %25

18:                                               ; preds = %11
  %19 = icmp eq i32 %13, 0
  br i1 %19, label %flush_character_buffer.exit.thread, label %flush_character_buffer.exit

flush_character_buffer.exit:                      ; preds = %18
  %20 = tail call fastcc i32 @call_character_handler(ptr noundef nonnull %0, ptr noundef nonnull %7, i32 noundef %13)
  store i32 0, ptr %12, align 4, !tbaa !35
  %21 = icmp slt i32 %20, 0
  br i1 %21, label %38, label %flush_character_buffer.exit.thread

flush_character_buffer.exit.thread:               ; preds = %18, %flush_character_buffer.exit
  %22 = getelementptr i8, ptr %0, i64 72
  %.val = load ptr, ptr %22, align 8, !tbaa !36
  %23 = getelementptr i8, ptr %.val, i64 24
  %24 = load ptr, ptr %23, align 8, !tbaa !14
  %.not23 = icmp eq ptr %24, null
  br i1 %.not23, label %38, label %flush_character_buffer.exit.thread._crit_edge

flush_character_buffer.exit.thread._crit_edge:    ; preds = %flush_character_buffer.exit.thread
  %.pre = load i32, ptr %15, align 8, !tbaa !34
  br label %25

25:                                               ; preds = %flush_character_buffer.exit.thread._crit_edge, %11
  %26 = phi i32 [ 0, %flush_character_buffer.exit.thread._crit_edge ], [ %13, %11 ]
  %27 = phi i32 [ %.pre, %flush_character_buffer.exit.thread._crit_edge ], [ %16, %11 ]
  %28 = icmp sgt i32 %2, %27
  br i1 %28, label %29, label %31

29:                                               ; preds = %25
  %30 = tail call fastcc i32 @call_character_handler(ptr noundef nonnull %0, ptr noundef %1, i32 noundef %2)
  store i32 0, ptr %12, align 4, !tbaa !35
  br label %38

31:                                               ; preds = %25
  %32 = load ptr, ptr %6, align 8, !tbaa !29
  %33 = sext i32 %26 to i64
  %34 = getelementptr i8, ptr %32, i64 %33
  %35 = sext i32 %2 to i64
  tail call void @llvm.memcpy.p0.p0.i64(ptr align 1 %34, ptr align 1 %1, i64 %35, i1 false)
  %36 = load i32, ptr %12, align 4, !tbaa !35
  %37 = add i32 %36, %2
  store i32 %37, ptr %12, align 4, !tbaa !35
  br label %38

38:                                               ; preds = %9, %31, %29, %flush_character_buffer.exit.thread, %flush_character_buffer.exit, %3
  ret void
}